target datalayout = "e-m:e-p270:32:32-p271:32:32-p272:64:64-i64:64-i128:128-f80:128-n8:16:32:64-S128"
target triple = "x86_64-pc-linux-gnu"

%"class.std::shared_ptr" = type { %"class.std::__shared_ptr" }
%"class.std::__shared_ptr" = type { ptr, %"class.std::__shared_count" }
%"class.std::__shared_count" = type { ptr }
%"class.json11::Json" = type { %"class.std::shared_ptr" }

@__dso_handle = external hidden global i8
@_ZZN6json11L11static_nullEvE9json_null = internal global %"class.json11::Json" zeroinitializer, align 8
@_ZGVZN6json11L11static_nullEvE9json_null = internal global i64 0, align 8
@_ZN6json114JsonC1Ev = unnamed_addr alias void (ptr), ptr @_ZN6json114JsonC2Ev

; Function Attrs: mustprogress nounwind uwtable
define internal noundef nonnull align 8 dereferenceable(16) ptr @_ZN6json11L11static_nullEv() #1 {
  %1 = load atomic i8, ptr @_ZGVZN6json11L11static_nullEvE9json_null acquire, align 8
  %2 = icmp eq i8 %1, 0
  br i1 %2, label %3, label %8, !prof !6

3:                                                ; preds = %0
  %4 = call i32 @__cxa_guard_acquire(ptr @_ZGVZN6json11L11static_nullEvE9json_null) #4
  %5 = icmp ne i32 %4, 0
  br i1 %5, label %6, label %8

6:                                                ; preds = %3
  call void @_ZN6json114JsonC1Ev(ptr noundef nonnull align 8 dereferenceable(16) @_ZZN6json11L11static_nullEvE9json_null) #4
  %7 = call i32 @__cxa_atexit(ptr @_ZN6json114JsonD2Ev, ptr @_ZZN6json11L11static_nullEvE9json_null, ptr @__dso_handle) #4
  call void @__cxa_guard_release(ptr @_ZGVZN6json11L11static_nullEvE9json_null) #4
  br label %8

8:                                                ; preds = %6, %3, %0
  ret ptr @_ZZN6json11L11static_nullEvE9json_null
}

; Function Attrs: mustprogress uwtable
define noundef nonnull align 8 dereferenceable(16) ptr @_ZNK6json119JsonValueixERKNSt7__cxx1112basic_stringIcSt11char_traitsIcESaIcEEE(ptr noundef nonnull align 8 dereferenceable(8) %0, ptr noundef nonnull align 8 dereferenceable(32) %1) unnamed_addr #0 align 2 {
  %3 = alloca ptr, align 8
  %4 = alloca ptr, align 8
  store ptr %0, ptr %3, align 8
  store ptr %1, ptr %4, align 8
  %5 = call noundef nonnull align 8 dereferenceable(16) ptr @_ZN6json11L11static_nullEv()
  ret ptr %5
}